; Function Attrs: mustprogress nofree norecurse nosync nounwind willreturn memory(argmem: read) uwtable
define hidden noundef i32 @_ZN2cv20updateContinuityFlagEiiPKiPKm(i32 noundef %0, i32 noundef %1, ptr noundef readonly captures(none) %2, ptr noundef readonly captures(none) %3) local_unnamed_addr #14 {
  %5 = icmp sgt i32 %1, 0
  br i1 %5, label %.lr.ph.preheader, label %._crit_edge

.lr.ph.preheader:                                 ; preds = %4
  %wide.trip.count = zext nneg i32 %1 to i64
  br label %.lr.ph

.lr.ph:                                           ; preds = %.lr.ph.preheader, %9
  %indvars.iv = phi i64 [ 0, %.lr.ph.preheader ], [ %indvars.iv.next, %9 ]
  %6 = getelementptr inbounds nuw i32, ptr %2, i64 %indvars.iv
  %7 = load i32, ptr %6, align 4, !tbaa !23
  %8 = icmp sgt i32 %7, 1
  br i1 %8, label %._crit_edge.loopexit.split.loop.exit, label %9

9:                                                ; preds = %.lr.ph
  %indvars.iv.next = add nuw nsw i64 %indvars.iv, 1
  %exitcond.not = icmp eq i64 %indvars.iv.next, %wide.trip.count
  br i1 %exitcond.not, label %._crit_edge, label %.lr.ph, !llvm.loop !64

._crit_edge.loopexit.split.loop.exit:             ; preds = %.lr.ph
  %10 = trunc nuw nsw i64 %indvars.iv to i32
  br label %._crit_edge

._crit_edge:                                      ; preds = %9, %._crit_edge.loopexit.split.loop.exit, %4
  %storemerge.lcssa = phi i32 [ 0, %4 ], [ %10, %._crit_edge.loopexit.split.loop.exit ], [ %1, %9 ]
  %11 = add nsw i32 %1, -1
  %.sroa.speculated = tail call i32 @llvm.smin.i32(i32 %11, i32 %storemerge.lcssa)
  %12 = sext i32 %.sroa.speculated to i64
  %13 = getelementptr inbounds i32, ptr %2, i64 %12
  %14 = load i32, ptr %13, align 4, !tbaa !23
  %15 = sext i32 %14 to i64
  %16 = lshr i32 %0, 3
  %17 = and i32 %16, 511
  %18 = add nuw nsw i32 %17, 1
  %19 = zext nneg i32 %18 to i64
  %20 = mul nsw i64 %15, %19
  %21 = icmp sgt i32 %11, %storemerge.lcssa
  br i1 %21, label %.lr.ph37.preheader, label %._crit_edge38

.lr.ph37.preheader:                               ; preds = %._crit_edge
  %22 = sext i32 %11 to i64
  %23 = sext i32 %storemerge.lcssa to i64
  br label %.lr.ph37

.lr.ph37:                                         ; preds = %.lr.ph37.preheader, %34
  %indvars.iv45 = phi i64 [ %22, %.lr.ph37.preheader ], [ %indvars.iv.next46, %34 ]
  %.035 = phi i64 [ %20, %.lr.ph37.preheader ], [ %27, %34 ]
  %24 = getelementptr inbounds i32, ptr %2, i64 %indvars.iv45
  %25 = load i32, ptr %24, align 4, !tbaa !23
  %26 = sext i32 %25 to i64
  %27 = mul i64 %.035, %26
  %28 = getelementptr inbounds i64, ptr %3, i64 %indvars.iv45
  %29 = load i64, ptr %28, align 8, !tbaa !22
  %30 = mul i64 %29, %26
  %31 = getelementptr i8, ptr %28, i64 -8
  %32 = load i64, ptr %31, align 8, !tbaa !22
  %33 = icmp ult i64 %30, %32
  br i1 %33, label %._crit_edge38.loopexit.split.loop.exit, label %34

34:                                               ; preds = %.lr.ph37
  %indvars.iv.next46 = add nsw i64 %indvars.iv45, -1
  %35 = icmp sgt i64 %indvars.iv.next46, %23
  br i1 %35, label %.lr.ph37, label %._crit_edge38, !llvm.loop !65

._crit_edge38.loopexit.split.loop.exit:           ; preds = %.lr.ph37
  %36 = trunc nsw i64 %indvars.iv45 to i32
  br label %._crit_edge38

._crit_edge38:                                    ; preds = %34, %._crit_edge38.loopexit.split.loop.exit, %._crit_edge
  %.022.lcssa = phi i32 [ %11, %._crit_edge ], [ %36, %._crit_edge38.loopexit.split.loop.exit ], [ %storemerge.lcssa, %34 ]
  %.1 = phi i64 [ %20, %._crit_edge ], [ %27, %._crit_edge38.loopexit.split.loop.exit ], [ %27, %34 ]
  %.not = icmp sle i32 %.022.lcssa, %storemerge.lcssa
  %37 = add i64 %.1, 2147483648
  %38 = icmp ult i64 %37, 4294967296
  %or.cond = select i1 %.not, i1 %38, i1 false
  %39 = and i32 %0, -16385
  %masksel = select i1 %or.cond, i32 16384, i32 0
  %.023 = or disjoint i32 %masksel, %39
  ret i32 %.023
}